target datalayout = "e-m:e-p270:32:32-p271:32:32-p272:64:64-i64:64-i128:128-f80:128-n8:16:32:64-S128"
target triple = "x86_64-pc-linux-gnu"

%"class.flatbuffers::ClassicLocale" = type { ptr }
%"class.flatbuffers::Vector" = type { i32 }

@_ZN11flatbuffers13ClassicLocale9instance_E = external global %"class.flatbuffers::ClassicLocale", align 8

; Function Attrs: mustprogress nounwind uwtable
define linkonce_odr dso_local noundef ptr @_ZN11flatbuffers13ClassicLocale3GetEv() #1 comdat align 2 {
  %1 = load ptr, ptr @_ZN11flatbuffers13ClassicLocale9instance_E, align 8, !tbaa !184
  ret ptr %1
}

; Function Attrs: inlinehint mustprogress nounwind uwtable
define linkonce_odr dso_local noundef zeroext i1 @_ZN11flatbuffers17check_ascii_rangeEccc(i8 noundef signext %0, i8 noundef signext %1, i8 noundef signext %2) #5 comdat {
  %4 = alloca i8, align 1
  %5 = alloca i8, align 1
  %6 = alloca i8, align 1
  store i8 %0, ptr %4, align 1, !tbaa !14
  store i8 %1, ptr %5, align 1, !tbaa !14
  store i8 %2, ptr %6, align 1, !tbaa !14
  %7 = load i8, ptr %4, align 1, !tbaa !14
  %8 = sext i8 %7 to i32
  %9 = load i8, ptr %5, align 1, !tbaa !14
  %10 = sext i8 %9 to i32
  %11 = sub nsw i32 %8, %10
  %12 = load i8, ptr %6, align 1, !tbaa !14
  %13 = sext i8 %12 to i32
  %14 = load i8, ptr %5, align 1, !tbaa !14
  %15 = sext i8 %14 to i32
  %16 = sub nsw i32 %13, %15
  %17 = icmp ule i32 %11, %16
  ret i1 %17
}

; Function Attrs: inlinehint mustprogress uwtable
define linkonce_odr dso_local void @_ZN11flatbuffers13strtoval_implEPlPKcPPci(ptr noundef %0, ptr noundef %1, ptr noundef %2, i32 noundef %3) #3 comdat {
  %5 = alloca ptr, align 8
  %6 = alloca ptr, align 8
  %7 = alloca ptr, align 8
  %8 = alloca i32, align 4
  store ptr %0, ptr %5, align 8, !tbaa !179
  store ptr %1, ptr %6, align 8, !tbaa !8
  store ptr %2, ptr %7, align 8, !tbaa !182
  store i32 %3, ptr %8, align 4, !tbaa !17
  %9 = load ptr, ptr %6, align 8, !tbaa !8
  %10 = load ptr, ptr %7, align 8, !tbaa !182
  %11 = load i32, ptr %8, align 4, !tbaa !17
  %12 = call noundef ptr @_ZN11flatbuffers13ClassicLocale3GetEv()
  %13 = call i64 @strtoll_l(ptr noundef %9, ptr noundef %10, i32 noundef %11, ptr noundef %12) #20
  %14 = load ptr, ptr %5, align 8, !tbaa !179
  store i64 %13, ptr %14, align 8, !tbaa !19
  ret void
}

; Function Attrs: inlinehint mustprogress nounwind uwtable
define linkonce_odr dso_local noundef zeroext i1 @_ZN11flatbuffers13is_alpha_charEcc(i8 noundef signext %0, i8 noundef signext %1) #5 comdat {
  %3 = alloca i8, align 1
  %4 = alloca i8, align 1
  store i8 %0, ptr %3, align 1, !tbaa !14
  store i8 %1, ptr %4, align 1, !tbaa !14
  %5 = load i8, ptr %3, align 1, !tbaa !14
  %6 = sext i8 %5 to i32
  %7 = and i32 %6, 223
  %8 = load i8, ptr %4, align 1, !tbaa !14
  %9 = sext i8 %8 to i32
  %10 = and i32 %9, 223
  %11 = icmp eq i32 %7, %10
  ret i1 %11
}

; Function Attrs: inlinehint mustprogress uwtable
define linkonce_odr dso_local noundef zeroext i1 @_ZN11flatbuffers8is_digitEc(i8 noundef signext %0) #3 comdat {
  %2 = alloca i8, align 1
  store i8 %0, ptr %2, align 1, !tbaa !14
  %3 = load i8, ptr %2, align 1, !tbaa !14
  %4 = call noundef zeroext i1 @_ZN11flatbuffers17check_ascii_rangeEccc(i8 noundef signext %3, i8 noundef signext 48, i8 noundef signext 57)
  ret i1 %4
}

; Function Attrs: inlinehint mustprogress uwtable
define linkonce_odr dso_local noundef zeroext i1 @_ZN11flatbuffers19StringToIntegerImplIlEEbPT_PKcib(ptr noundef %0, ptr noundef %1, i32 noundef %2, i1 noundef zeroext %3) #3 comdat {
  %5 = alloca i1, align 1
  %6 = alloca ptr, align 8
  %7 = alloca ptr, align 8
  %8 = alloca i32, align 4
  %9 = alloca i8, align 1
  %10 = alloca ptr, align 8
  %11 = alloca i32, align 4
  %12 = alloca ptr, align 8
  store ptr %0, ptr %6, align 8, !tbaa !179
  store ptr %1, ptr %7, align 8, !tbaa !8
  store i32 %2, ptr %8, align 4, !tbaa !17
  %13 = zext i1 %3 to i8
  store i8 %13, ptr %9, align 1, !tbaa !53
  %14 = load i32, ptr %8, align 4, !tbaa !17
  %15 = icmp sle i32 %14, 0
  br i1 %15, label %16, label %56

16:                                               ; preds = %4
  call void @llvm.lifetime.start.p0(i64 8, ptr %10) #20
  %17 = load ptr, ptr %7, align 8, !tbaa !8
  store ptr %17, ptr %10, align 8, !tbaa !8
  br label %18

18:                                               ; preds = %29, %16
  %19 = load ptr, ptr %10, align 8, !tbaa !8
  %20 = load i8, ptr %19, align 1, !tbaa !14
  %21 = icmp ne i8 %20, 0
  br i1 %21, label %22, label %27

22:                                               ; preds = %18
  %23 = load ptr, ptr %10, align 8, !tbaa !8
  %24 = load i8, ptr %23, align 1, !tbaa !14
  %25 = call noundef zeroext i1 @_ZN11flatbuffers8is_digitEc(i8 noundef signext %24)
  %26 = xor i1 %25, true
  br label %27

27:                                               ; preds = %22, %18
  %28 = phi i1 [ false, %18 ], [ %26, %22 ]
  br i1 %28, label %29, label %32

29:                                               ; preds = %27
  %30 = load ptr, ptr %10, align 8, !tbaa !8
  %31 = getelementptr inbounds nuw i8, ptr %30, i32 1
  store ptr %31, ptr %10, align 8, !tbaa !8
  br label %18, !llvm.loop !181

32:                                               ; preds = %27
  %33 = load ptr, ptr %10, align 8, !tbaa !8
  %34 = getelementptr inbounds i8, ptr %33, i64 0
  %35 = load i8, ptr %34, align 1, !tbaa !14
  %36 = sext i8 %35 to i32
  %37 = icmp eq i32 %36, 48
  br i1 %37, label %38, label %49

38:                                               ; preds = %32
  %39 = load ptr, ptr %10, align 8, !tbaa !8
  %40 = getelementptr inbounds i8, ptr %39, i64 1
  %41 = load i8, ptr %40, align 1, !tbaa !14
  %42 = call noundef zeroext i1 @_ZN11flatbuffers13is_alpha_charEcc(i8 noundef signext %41, i8 noundef signext 88)
  br i1 %42, label %43, label %49

43:                                               ; preds = %38
  %44 = load ptr, ptr %6, align 8, !tbaa !179
  %45 = load ptr, ptr %7, align 8, !tbaa !8
  %46 = load i8, ptr %9, align 1, !tbaa !53, !range !55, !noundef !56
  %47 = trunc i8 %46 to i1
  %48 = call noundef zeroext i1 @_ZN11flatbuffers19StringToIntegerImplIlEEbPT_PKcib(ptr noundef %44, ptr noundef %45, i32 noundef 16, i1 noundef zeroext %47)
  store i1 %48, ptr %5, align 1
  store i32 1, ptr %11, align 4
  br label %55

49:                                               ; preds = %38, %32
  %50 = load ptr, ptr %6, align 8, !tbaa !179
  %51 = load ptr, ptr %7, align 8, !tbaa !8
  %52 = load i8, ptr %9, align 1, !tbaa !53, !range !55, !noundef !56
  %53 = trunc i8 %52 to i1
  %54 = call noundef zeroext i1 @_ZN11flatbuffers19StringToIntegerImplIlEEbPT_PKcib(ptr noundef %50, ptr noundef %51, i32 noundef 10, i1 noundef zeroext %53)
  store i1 %54, ptr %5, align 1
  store i32 1, ptr %11, align 4
  br label %55

55:                                               ; preds = %49, %43
  call void @llvm.lifetime.end.p0(i64 8, ptr %10) #20
  br label %86

56:                                               ; preds = %4
  %57 = load i8, ptr %9, align 1, !tbaa !53, !range !55, !noundef !56
  %58 = trunc i8 %57 to i1
  br i1 %58, label %59, label %61

59:                                               ; preds = %56
  %60 = call ptr @__errno_location() #24
  store i32 0, ptr %60, align 4, !tbaa !17
  br label %61

61:                                               ; preds = %59, %56
  call void @llvm.lifetime.start.p0(i64 8, ptr %12) #20
  %62 = load ptr, ptr %7, align 8, !tbaa !8
  store ptr %62, ptr %12, align 8, !tbaa !8
  %63 = load ptr, ptr %6, align 8, !tbaa !179
  %64 = load ptr, ptr %7, align 8, !tbaa !8
  %65 = load i32, ptr %8, align 4, !tbaa !17
  call void @_ZN11flatbuffers13strtoval_implEPlPKcPPci(ptr noundef %63, ptr noundef %64, ptr noundef %12, i32 noundef %65)
  %66 = load ptr, ptr %12, align 8, !tbaa !8
  %67 = load i8, ptr %66, align 1, !tbaa !14
  %68 = sext i8 %67 to i32
  %69 = icmp ne i32 %68, 0
  br i1 %69, label %74, label %70

70:                                               ; preds = %61
  %71 = load ptr, ptr %12, align 8, !tbaa !8
  %72 = load ptr, ptr %7, align 8, !tbaa !8
  %73 = icmp eq ptr %71, %72
  br i1 %73, label %74, label %76

74:                                               ; preds = %70, %61
  %75 = load ptr, ptr %6, align 8, !tbaa !179
  store i64 0, ptr %75, align 8, !tbaa !19
  store i1 false, ptr %5, align 1
  store i32 1, ptr %11, align 4
  br label %85

76:                                               ; preds = %70
  %77 = load i8, ptr %9, align 1, !tbaa !53, !range !55, !noundef !56
  %78 = trunc i8 %77 to i1
  br i1 %78, label %79, label %84

79:                                               ; preds = %76
  %80 = call ptr @__errno_location() #24
  %81 = load i32, ptr %80, align 4, !tbaa !17
  %82 = icmp ne i32 %81, 0
  br i1 %82, label %83, label %84

83:                                               ; preds = %79
  store i1 false, ptr %5, align 1
  store i32 1, ptr %11, align 4
  br label %85

84:                                               ; preds = %79, %76
  store i1 true, ptr %5, align 1
  store i32 1, ptr %11, align 4
  br label %85

85:                                               ; preds = %84, %83, %74
  call void @llvm.lifetime.end.p0(i64 8, ptr %12) #20
  br label %86

86:                                               ; preds = %85, %55
  %87 = load i1, ptr %5, align 1
  ret i1 %87
}

; Function Attrs: mustprogress nounwind uwtable
define linkonce_odr dso_local noundef ptr @_ZNK11flatbuffers6VectorIcjE4DataEv(ptr noundef nonnull align 4 dereferenceable(4) %0) #1 comdat align 2 {
  %2 = alloca ptr, align 8
  store ptr %0, ptr %2, align 8, !tbaa !78
  %3 = load ptr, ptr %2, align 8
  %4 = getelementptr inbounds nuw %"class.flatbuffers::Vector", ptr %3, i32 0, i32 0
  %5 = getelementptr inbounds i32, ptr %4, i64 1
  ret ptr %5
}

; Function Attrs: mustprogress nounwind uwtable
define linkonce_odr dso_local noundef double @_ZN11flatbuffers12EndianScalarIdEET_S1_(double noundef %0) #1 comdat {
  %2 = alloca double, align 8
  store double %0, ptr %2, align 8, !tbaa !23
  %3 = load double, ptr %2, align 8, !tbaa !23
  ret double %3
}

; Function Attrs: mustprogress nounwind uwtable
define linkonce_odr dso_local noundef float @_ZN11flatbuffers12EndianScalarIfEET_S1_(float noundef %0) #1 comdat {
  %2 = alloca float, align 4
  store float %0, ptr %2, align 4, !tbaa !21
  %3 = load float, ptr %2, align 4, !tbaa !21
  ret float %3
}

; Function Attrs: mustprogress nounwind uwtable
define linkonce_odr dso_local noundef i64 @_ZN11flatbuffers12EndianScalarImEET_S1_(i64 noundef %0) #1 comdat {
  %2 = alloca i64, align 8
  store i64 %0, ptr %2, align 8, !tbaa !19
  %3 = load i64, ptr %2, align 8, !tbaa !19
  ret i64 %3
}

; Function Attrs: mustprogress nounwind uwtable
define linkonce_odr dso_local noundef i64 @_ZN11flatbuffers12EndianScalarIlEET_S1_(i64 noundef %0) #1 comdat {
  %2 = alloca i64, align 8
  store i64 %0, ptr %2, align 8, !tbaa !19
  %3 = load i64, ptr %2, align 8, !tbaa !19
  ret i64 %3
}

; Function Attrs: mustprogress nounwind uwtable
define linkonce_odr dso_local noundef i32 @_ZN11flatbuffers12EndianScalarIjEET_S1_(i32 noundef %0) #1 comdat {
  %2 = alloca i32, align 4
  store i32 %0, ptr %2, align 4, !tbaa !17
  %3 = load i32, ptr %2, align 4, !tbaa !17
  ret i32 %3
}

; Function Attrs: mustprogress nounwind uwtable
define linkonce_odr dso_local noundef i32 @_ZN11flatbuffers12EndianScalarIiEET_S1_(i32 noundef %0) #1 comdat {
  %2 = alloca i32, align 4
  store i32 %0, ptr %2, align 4, !tbaa !17
  %3 = load i32, ptr %2, align 4, !tbaa !17
  ret i32 %3
}

; Function Attrs: mustprogress nounwind uwtable
define linkonce_odr dso_local noundef zeroext i16 @_ZN11flatbuffers12EndianScalarItEET_S1_(i16 noundef zeroext %0) #1 comdat {
  %2 = alloca i16, align 2
  store i16 %0, ptr %2, align 2, !tbaa !15
  %3 = load i16, ptr %2, align 2, !tbaa !15
  ret i16 %3
}

; Function Attrs: mustprogress nounwind uwtable
define linkonce_odr dso_local noundef signext i16 @_ZN11flatbuffers12EndianScalarIsEET_S1_(i16 noundef signext %0) #1 comdat {
  %2 = alloca i16, align 2
  store i16 %0, ptr %2, align 2, !tbaa !15
  %3 = load i16, ptr %2, align 2, !tbaa !15
  ret i16 %3
}

; Function Attrs: mustprogress nounwind uwtable
define linkonce_odr dso_local noundef signext i8 @_ZN11flatbuffers12EndianScalarIaEET_S1_(i8 noundef signext %0) #1 comdat {
  %2 = alloca i8, align 1
  store i8 %0, ptr %2, align 1, !tbaa !14
  %3 = load i8, ptr %2, align 1, !tbaa !14
  ret i8 %3
}

; Function Attrs: mustprogress nounwind uwtable
define linkonce_odr dso_local noundef zeroext i8 @_ZN11flatbuffers12EndianScalarIhEET_S1_(i8 noundef zeroext %0) #1 comdat {
  %2 = alloca i8, align 1
  store i8 %0, ptr %2, align 1, !tbaa !14
  %3 = load i8, ptr %2, align 1, !tbaa !14
  ret i8 %3
}

; Function Attrs: inlinehint mustprogress uwtable
define linkonce_odr dso_local noundef i64 @_ZN11flatbuffers11StringToIntEPKci(ptr noundef %0, i32 noundef %1) #3 comdat {
  %3 = alloca ptr, align 8
  %4 = alloca i32, align 4
  %5 = alloca i64, align 8
  store ptr %0, ptr %3, align 8, !tbaa !8
  store i32 %1, ptr %4, align 4, !tbaa !17
  call void @llvm.lifetime.start.p0(i64 8, ptr %5) #20
  %6 = load ptr, ptr %3, align 8, !tbaa !8
  %7 = load i32, ptr %4, align 4, !tbaa !17
  %8 = call noundef zeroext i1 @_ZN11flatbuffers19StringToIntegerImplIlEEbPT_PKcib(ptr noundef %5, ptr noundef %6, i32 noundef %7, i1 noundef zeroext true)
  br i1 %8, label %9, label %11

9:                                                ; preds = %2
  %10 = load i64, ptr %5, align 8, !tbaa !19
  br label %12

11:                                               ; preds = %2
  br label %12

12:                                               ; preds = %11, %9
  %13 = phi i64 [ %10, %9 ], [ 0, %11 ]
  call void @llvm.lifetime.end.p0(i64 8, ptr %5) #20
  ret i64 %13
}

; Function Attrs: mustprogress uwtable
define linkonce_odr dso_local noundef ptr @_ZNK11flatbuffers6String5c_strEv(ptr noundef nonnull align 4 dereferenceable(4) %0) #0 comdat align 2 {
  %2 = alloca ptr, align 8
  store ptr %0, ptr %2, align 8, !tbaa !11
  %3 = load ptr, ptr %2, align 8
  %4 = call noundef ptr @_ZNK11flatbuffers6VectorIcjE4DataEv(ptr noundef nonnull align 4 dereferenceable(4) %3)
  ret ptr %4
}

; Function Attrs: mustprogress uwtable
define linkonce_odr dso_local noundef double @_ZN11flatbuffers10ReadScalarIdEET_PKv(ptr noundef %0) #0 comdat {
  %2 = alloca ptr, align 8
  store ptr %0, ptr %2, align 8, !tbaa !13
  %3 = load ptr, ptr %2, align 8, !tbaa !13
  %4 = load double, ptr %3, align 8, !tbaa !23
  %5 = call noundef double @_ZN11flatbuffers12EndianScalarIdEET_S1_(double noundef %4)
  ret double %5
}

; Function Attrs: mustprogress uwtable
define linkonce_odr dso_local noundef float @_ZN11flatbuffers10ReadScalarIfEET_PKv(ptr noundef %0) #0 comdat {
  %2 = alloca ptr, align 8
  store ptr %0, ptr %2, align 8, !tbaa !13
  %3 = load ptr, ptr %2, align 8, !tbaa !13
  %4 = load float, ptr %3, align 4, !tbaa !21
  %5 = call noundef float @_ZN11flatbuffers12EndianScalarIfEET_S1_(float noundef %4)
  ret float %5
}

; Function Attrs: mustprogress uwtable
define linkonce_odr dso_local noundef i64 @_ZN11flatbuffers10ReadScalarImEET_PKv(ptr noundef %0) #0 comdat {
  %2 = alloca ptr, align 8
  store ptr %0, ptr %2, align 8, !tbaa !13
  %3 = load ptr, ptr %2, align 8, !tbaa !13
  %4 = load i64, ptr %3, align 8, !tbaa !19
  %5 = call noundef i64 @_ZN11flatbuffers12EndianScalarImEET_S1_(i64 noundef %4)
  ret i64 %5
}

; Function Attrs: mustprogress uwtable
define linkonce_odr dso_local noundef i64 @_ZN11flatbuffers10ReadScalarIlEET_PKv(ptr noundef %0) #0 comdat {
  %2 = alloca ptr, align 8
  store ptr %0, ptr %2, align 8, !tbaa !13
  %3 = load ptr, ptr %2, align 8, !tbaa !13
  %4 = load i64, ptr %3, align 8, !tbaa !19
  %5 = call noundef i64 @_ZN11flatbuffers12EndianScalarIlEET_S1_(i64 noundef %4)
  ret i64 %5
}

; Function Attrs: mustprogress nounwind uwtable
define linkonce_odr dso_local noundef i32 @_ZN11flatbuffers10ReadScalarIjEET_PKv(ptr noundef %0) #1 comdat {
  %2 = alloca ptr, align 8
  store ptr %0, ptr %2, align 8, !tbaa !13
  %3 = load ptr, ptr %2, align 8, !tbaa !13
  %4 = load i32, ptr %3, align 4, !tbaa !17
  %5 = call noundef i32 @_ZN11flatbuffers12EndianScalarIjEET_S1_(i32 noundef %4)
  ret i32 %5
}

; Function Attrs: mustprogress uwtable
define linkonce_odr dso_local noundef i32 @_ZN11flatbuffers10ReadScalarIiEET_PKv(ptr noundef %0) #0 comdat {
  %2 = alloca ptr, align 8
  store ptr %0, ptr %2, align 8, !tbaa !13
  %3 = load ptr, ptr %2, align 8, !tbaa !13
  %4 = load i32, ptr %3, align 4, !tbaa !17
  %5 = call noundef i32 @_ZN11flatbuffers12EndianScalarIiEET_S1_(i32 noundef %4)
  ret i32 %5
}

; Function Attrs: mustprogress uwtable
define linkonce_odr dso_local noundef zeroext i16 @_ZN11flatbuffers10ReadScalarItEET_PKv(ptr noundef %0) #0 comdat {
  %2 = alloca ptr, align 8
  store ptr %0, ptr %2, align 8, !tbaa !13
  %3 = load ptr, ptr %2, align 8, !tbaa !13
  %4 = load i16, ptr %3, align 2, !tbaa !15
  %5 = call noundef zeroext i16 @_ZN11flatbuffers12EndianScalarItEET_S1_(i16 noundef zeroext %4)
  ret i16 %5
}

; Function Attrs: mustprogress uwtable
define linkonce_odr dso_local noundef signext i16 @_ZN11flatbuffers10ReadScalarIsEET_PKv(ptr noundef %0) #0 comdat {
  %2 = alloca ptr, align 8
  store ptr %0, ptr %2, align 8, !tbaa !13
  %3 = load ptr, ptr %2, align 8, !tbaa !13
  %4 = load i16, ptr %3, align 2, !tbaa !15
  %5 = call noundef signext i16 @_ZN11flatbuffers12EndianScalarIsEET_S1_(i16 noundef signext %4)
  ret i16 %5
}

; Function Attrs: mustprogress uwtable
define linkonce_odr dso_local noundef signext i8 @_ZN11flatbuffers10ReadScalarIaEET_PKv(ptr noundef %0) #0 comdat {
  %2 = alloca ptr, align 8
  store ptr %0, ptr %2, align 8, !tbaa !13
  %3 = load ptr, ptr %2, align 8, !tbaa !13
  %4 = load i8, ptr %3, align 1, !tbaa !14
  %5 = call noundef signext i8 @_ZN11flatbuffers12EndianScalarIaEET_S1_(i8 noundef signext %4)
  ret i8 %5
}

; Function Attrs: mustprogress nounwind uwtable
define linkonce_odr dso_local noundef zeroext i8 @_ZN11flatbuffers10ReadScalarIhEET_PKv(ptr noundef %0) #1 comdat {
  %2 = alloca ptr, align 8
  store ptr %0, ptr %2, align 8, !tbaa !13
  %3 = load ptr, ptr %2, align 8, !tbaa !13
  %4 = load i8, ptr %3, align 1, !tbaa !14
  %5 = call noundef zeroext i8 @_ZN11flatbuffers12EndianScalarIhEET_S1_(i8 noundef zeroext %4)
  ret i8 %5
}

; Function Attrs: mustprogress uwtable
define dso_local noundef i64 @_ZN11flatbuffers12GetAnyValueIEN10reflection8BaseTypeEPKh(i32 noundef %0, ptr noundef %1) #0 {
  %3 = alloca i64, align 8
  %4 = alloca i32, align 4
  %5 = alloca ptr, align 8
  %6 = alloca ptr, align 8
  store i32 %0, ptr %4, align 4, !tbaa !4
  store ptr %1, ptr %5, align 8, !tbaa !8
  %7 = load i32, ptr %4, align 4, !tbaa !4
  switch i32 %7, label %61 [
    i32 1, label %8
    i32 2, label %8
    i32 4, label %8
    i32 3, label %12
    i32 5, label %16
    i32 6, label %20
    i32 7, label %24
    i32 8, label %28
    i32 9, label %32
    i32 10, label %35
    i32 11, label %38
    i32 12, label %42
    i32 13, label %46
  ]

8:                                                ; preds = %2, %2, %2
  %9 = load ptr, ptr %5, align 8, !tbaa !8
  %10 = call noundef zeroext i8 @_ZN11flatbuffers10ReadScalarIhEET_PKv(ptr noundef %9)
  %11 = zext i8 %10 to i64
  store i64 %11, ptr %3, align 8
  br label %62

12:                                               ; preds = %2
  %13 = load ptr, ptr %5, align 8, !tbaa !8
  %14 = call noundef signext i8 @_ZN11flatbuffers10ReadScalarIaEET_PKv(ptr noundef %13)
  %15 = sext i8 %14 to i64
  store i64 %15, ptr %3, align 8
  br label %62

16:                                               ; preds = %2
  %17 = load ptr, ptr %5, align 8, !tbaa !8
  %18 = call noundef signext i16 @_ZN11flatbuffers10ReadScalarIsEET_PKv(ptr noundef %17)
  %19 = sext i16 %18 to i64
  store i64 %19, ptr %3, align 8
  br label %62

20:                                               ; preds = %2
  %21 = load ptr, ptr %5, align 8, !tbaa !8
  %22 = call noundef zeroext i16 @_ZN11flatbuffers10ReadScalarItEET_PKv(ptr noundef %21)
  %23 = zext i16 %22 to i64
  store i64 %23, ptr %3, align 8
  br label %62

24:                                               ; preds = %2
  %25 = load ptr, ptr %5, align 8, !tbaa !8
  %26 = call noundef i32 @_ZN11flatbuffers10ReadScalarIiEET_PKv(ptr noundef %25)
  %27 = sext i32 %26 to i64
  store i64 %27, ptr %3, align 8
  br label %62

28:                                               ; preds = %2
  %29 = load ptr, ptr %5, align 8, !tbaa !8
  %30 = call noundef i32 @_ZN11flatbuffers10ReadScalarIjEET_PKv(ptr noundef %29)
  %31 = zext i32 %30 to i64
  store i64 %31, ptr %3, align 8
  br label %62

32:                                               ; preds = %2
  %33 = load ptr, ptr %5, align 8, !tbaa !8
  %34 = call noundef i64 @_ZN11flatbuffers10ReadScalarIlEET_PKv(ptr noundef %33)
  store i64 %34, ptr %3, align 8
  br label %62

35:                                               ; preds = %2
  %36 = load ptr, ptr %5, align 8, !tbaa !8
  %37 = call noundef i64 @_ZN11flatbuffers10ReadScalarImEET_PKv(ptr noundef %36)
  store i64 %37, ptr %3, align 8
  br label %62

38:                                               ; preds = %2
  %39 = load ptr, ptr %5, align 8, !tbaa !8
  %40 = call noundef float @_ZN11flatbuffers10ReadScalarIfEET_PKv(ptr noundef %39)
  %41 = fptosi float %40 to i64
  store i64 %41, ptr %3, align 8
  br label %62

42:                                               ; preds = %2
  %43 = load ptr, ptr %5, align 8, !tbaa !8
  %44 = call noundef double @_ZN11flatbuffers10ReadScalarIdEET_PKv(ptr noundef %43)
  %45 = fptosi double %44 to i64
  store i64 %45, ptr %3, align 8
  br label %62

46:                                               ; preds = %2
  call void @llvm.lifetime.start.p0(i64 8, ptr %6) #20
  %47 = load ptr, ptr %5, align 8, !tbaa !8
  %48 = call noundef i32 @_ZN11flatbuffers10ReadScalarIjEET_PKv(ptr noundef %47)
  %49 = load ptr, ptr %5, align 8, !tbaa !8
  %50 = zext i32 %48 to i64
  %51 = getelementptr inbounds nuw i8, ptr %49, i64 %50
  store ptr %51, ptr %6, align 8, !tbaa !11
  %52 = load ptr, ptr %6, align 8, !tbaa !11
  %53 = icmp ne ptr %52, null
  br i1 %53, label %54, label %58

54:                                               ; preds = %46
  %55 = load ptr, ptr %6, align 8, !tbaa !11
  %56 = call noundef ptr @_ZNK11flatbuffers6String5c_strEv(ptr noundef nonnull align 4 dereferenceable(4) %55)
  %57 = call noundef i64 @_ZN11flatbuffers11StringToIntEPKci(ptr noundef %56, i32 noundef 10)
  br label %59

58:                                               ; preds = %46
  br label %59

59:                                               ; preds = %58, %54
  %60 = phi i64 [ %57, %54 ], [ 0, %58 ]
  store i64 %60, ptr %3, align 8
  call void @llvm.lifetime.end.p0(i64 8, ptr %6) #20
  br label %62

61:                                               ; preds = %2
  store i64 0, ptr %3, align 8
  br label %62

62:                                               ; preds = %61, %59, %42, %38, %35, %32, %28, %24, %20, %16, %12, %8
  %63 = load i64, ptr %3, align 8
  ret i64 %63
}