; Function Attrs: mustprogress nounwind uwtable
define dso_local noundef i64 @_ZN11flatbuffers12GetAnyValueIEN10reflection8BaseTypeEPKh(i32 noundef %0, ptr noundef %1) local_unnamed_addr #0 {
  %3 = alloca ptr, align 8
  switch i32 %0, label %46 [
    i32 1, label %4
    i32 2, label %4
    i32 4, label %4
    i32 3, label %7
    i32 5, label %10
    i32 6, label %13
    i32 7, label %16
    i32 8, label %19
    i32 9, label %22
    i32 10, label %24
    i32 11, label %26
    i32 12, label %29
    i32 13, label %32
  ]

4:                                                ; preds = %2, %2, %2
  %5 = load i8, ptr %1, align 1, !tbaa !4
  %6 = zext i8 %5 to i64
  br label %46

7:                                                ; preds = %2
  %8 = load i8, ptr %1, align 1, !tbaa !4
  %9 = sext i8 %8 to i64
  br label %46

10:                                               ; preds = %2
  %11 = load i16, ptr %1, align 2, !tbaa !7
  %12 = sext i16 %11 to i64
  br label %46

13:                                               ; preds = %2
  %14 = load i16, ptr %1, align 2, !tbaa !7
  %15 = zext i16 %14 to i64
  br label %46

16:                                               ; preds = %2
  %17 = load i32, ptr %1, align 4, !tbaa !9
  %18 = sext i32 %17 to i64
  br label %46

19:                                               ; preds = %2
  %20 = load i32, ptr %1, align 4, !tbaa !9
  %21 = zext i32 %20 to i64
  br label %46

22:                                               ; preds = %2
  %23 = load i64, ptr %1, align 8, !tbaa !11
  br label %46

24:                                               ; preds = %2
  %25 = load i64, ptr %1, align 8, !tbaa !11
  br label %46

26:                                               ; preds = %2
  %27 = load float, ptr %1, align 4, !tbaa !13
  %28 = fptosi float %27 to i64
  br label %46

29:                                               ; preds = %2
  %30 = load double, ptr %1, align 8, !tbaa !15
  %31 = fptosi double %30 to i64
  br label %46

32:                                               ; preds = %2
  %33 = load i32, ptr %1, align 4, !tbaa !9
  %34 = zext i32 %33 to i64
  %35 = getelementptr inbounds nuw i8, ptr %1, i64 %34
  %36 = getelementptr inbounds nuw i8, ptr %35, i64 4
  %37 = tail call ptr @__errno_location() #20
  store i32 0, ptr %37, align 4, !tbaa !9
  call void @llvm.lifetime.start.p0(i64 8, ptr nonnull %3) #21
  store ptr %36, ptr %3, align 8, !tbaa !17
  %38 = load ptr, ptr @_ZN11flatbuffers13ClassicLocale9instance_E, align 8, !tbaa !20
  %39 = call i64 @strtoll_l(ptr noundef nonnull %36, ptr noundef nonnull %3, i32 noundef 10, ptr noundef %38) #21
  %40 = load ptr, ptr %3, align 8, !tbaa !17
  %41 = load i8, ptr %40, align 1, !tbaa !4
  %.not.i = icmp ne i8 %41, 0
  %42 = icmp eq ptr %40, %36
  %or.cond.i = or i1 %42, %.not.i
  br i1 %or.cond.i, label %_ZN11flatbuffers19StringToIntegerImplIlEEbPT_PKcib.exit.thread, label %43

43:                                               ; preds = %32
  %44 = load i32, ptr %37, align 4, !tbaa !9
  %.not24.i = icmp eq i32 %44, 0
  br i1 %.not24.i, label %45, label %_ZN11flatbuffers19StringToIntegerImplIlEEbPT_PKcib.exit.thread

_ZN11flatbuffers19StringToIntegerImplIlEEbPT_PKcib.exit.thread: ; preds = %43, %32
  call void @llvm.lifetime.end.p0(i64 8, ptr nonnull %3) #21
  br label %46

45:                                               ; preds = %43
  call void @llvm.lifetime.end.p0(i64 8, ptr nonnull %3) #21
  br label %46

46:                                               ; preds = %45, %_ZN11flatbuffers19StringToIntegerImplIlEEbPT_PKcib.exit.thread, %2, %29, %26, %24, %22, %19, %16, %13, %10, %7, %4
  %.0 = phi i64 [ %31, %29 ], [ %28, %26 ], [ %25, %24 ], [ %23, %22 ], [ %21, %19 ], [ %18, %16 ], [ %15, %13 ], [ %12, %10 ], [ %9, %7 ], [ %6, %4 ], [ 0, %2 ], [ %39, %45 ], [ 0, %_ZN11flatbuffers19StringToIntegerImplIlEEbPT_PKcib.exit.thread ]
  ret i64 %.0
}